; Function Attrs: mustprogress nofree norecurse nosync nounwind memory(readwrite, inaccessiblemem: none) uwtable
define noundef double @_ZNK9MeshGraph14MappedFractionEv(ptr nocapture noundef nonnull readonly align 8 dereferenceable(80) %0) local_unnamed_addr #18 align 2 {
  %2 = getelementptr inbounds i8, ptr %0, i64 24
  %.sroa.014.017 = load ptr, ptr %2, align 8
  %.not18 = icmp eq ptr %.sroa.014.017, null
  br i1 %.not18, label %._crit_edge, label %.lr.ph

.lr.ph:                                           ; preds = %1, %27
  %.sroa.014.021 = phi ptr [ %.sroa.014.0, %27 ], [ %.sroa.014.017, %1 ]
  %.020 = phi double [ %14, %27 ], [ 0.000000e+00, %1 ]
  %.01019 = phi double [ %.1, %27 ], [ 0.000000e+00, %1 ]
  %3 = getelementptr inbounds i8, ptr %.sroa.014.021, i64 16
  %4 = load ptr, ptr %3, align 8
  %5 = getelementptr inbounds i8, ptr %4, i64 120
  %6 = load i8, ptr %5, align 8
  %7 = and i8 %6, 1
  %.not.i = icmp eq i8 %7, 0
  br i1 %.not.i, label %_ZNK9FaceGroup6Area3DEv.exit.thread, label %_ZNK9FaceGroup6Area3DEv.exit

_ZNK9FaceGroup6Area3DEv.exit.thread:              ; preds = %.lr.ph
  %8 = getelementptr inbounds i8, ptr %4, i64 136
  %9 = load double, ptr %8, align 8
  br label %_ZNK9FaceGroup6AreaUVEv.exit

_ZNK9FaceGroup6Area3DEv.exit:                     ; preds = %.lr.ph
  tail call void @_ZNK9FaceGroup11UpdateCacheEv(ptr noundef nonnull align 8 dereferenceable(192) %4)
  %.pre = load ptr, ptr %3, align 8
  %.phi.trans.insert = getelementptr inbounds i8, ptr %.pre, i64 120
  %.pre23 = load i8, ptr %.phi.trans.insert, align 8
  %.pre24 = and i8 %.pre23, 1
  %10 = getelementptr inbounds i8, ptr %4, i64 136
  %11 = load double, ptr %10, align 8
  %.not.i11 = icmp eq i8 %.pre24, 0
  br i1 %.not.i11, label %_ZNK9FaceGroup6AreaUVEv.exit, label %12

12:                                               ; preds = %_ZNK9FaceGroup6Area3DEv.exit
  tail call void @_ZNK9FaceGroup11UpdateCacheEv(ptr noundef nonnull align 8 dereferenceable(192) %.pre)
  br label %_ZNK9FaceGroup6AreaUVEv.exit

_ZNK9FaceGroup6AreaUVEv.exit:                     ; preds = %_ZNK9FaceGroup6Area3DEv.exit.thread, %_ZNK9FaceGroup6Area3DEv.exit, %12
  %.pn = phi double [ %9, %_ZNK9FaceGroup6Area3DEv.exit.thread ], [ %11, %_ZNK9FaceGroup6Area3DEv.exit ], [ %11, %12 ]
  %13 = phi ptr [ %4, %_ZNK9FaceGroup6Area3DEv.exit.thread ], [ %.pre, %_ZNK9FaceGroup6Area3DEv.exit ], [ %.pre, %12 ]
  %14 = fadd double %.020, %.pn
  %15 = getelementptr inbounds i8, ptr %13, i64 128
  %16 = load double, ptr %15, align 8
  %17 = fcmp ogt double %16, 0.000000e+00
  br i1 %17, label %18, label %27

18:                                               ; preds = %_ZNK9FaceGroup6AreaUVEv.exit
  %19 = load ptr, ptr %3, align 8
  %20 = getelementptr inbounds i8, ptr %19, i64 120
  %21 = load i8, ptr %20, align 8
  %22 = and i8 %21, 1
  %.not.i12 = icmp eq i8 %22, 0
  br i1 %.not.i12, label %_ZNK9FaceGroup6Area3DEv.exit13, label %23

23:                                               ; preds = %18
  tail call void @_ZNK9FaceGroup11UpdateCacheEv(ptr noundef nonnull align 8 dereferenceable(192) %19)
  br label %_ZNK9FaceGroup6Area3DEv.exit13

_ZNK9FaceGroup6Area3DEv.exit13:                   ; preds = %18, %23
  %24 = getelementptr inbounds i8, ptr %19, i64 136
  %25 = load double, ptr %24, align 8
  %26 = fadd double %.01019, %25
  br label %27

27:                                               ; preds = %_ZNK9FaceGroup6AreaUVEv.exit, %_ZNK9FaceGroup6Area3DEv.exit13
  %.1 = phi double [ %26, %_ZNK9FaceGroup6Area3DEv.exit13 ], [ %.01019, %_ZNK9FaceGroup6AreaUVEv.exit ]
  %.sroa.014.0 = load ptr, ptr %.sroa.014.021, align 8
  %.not = icmp eq ptr %.sroa.014.0, null
  br i1 %.not, label %._crit_edge.loopexit, label %.lr.ph

._crit_edge.loopexit:                             ; preds = %27
  %28 = fdiv double %.1, %14
  br label %._crit_edge

._crit_edge:                                      ; preds = %._crit_edge.loopexit, %1
  %29 = phi double [ 0x7FF8000000000000, %1 ], [ %28, %._crit_edge.loopexit ]
  ret double %29
}